target datalayout = "e-m:e-p270:32:32-p271:32:32-p272:64:64-i64:64-i128:128-f80:128-n8:16:32:64-S128"
target triple = "x86_64-pc-linux-gnu"

; Function Attrs: mustprogress nounwind uwtable
define noundef float @_ZN5faiss15fvec_norm_L2sqrEPKfm(ptr noundef %0, i64 noundef %1) #0 {
  %3 = alloca ptr, align 8
  %4 = alloca i64, align 8
  %5 = alloca float, align 4
  %6 = alloca i64, align 8
  store ptr %0, ptr %3, align 8, !tbaa !4
  store i64 %1, ptr %4, align 8, !tbaa !9
  call void @llvm.lifetime.start.p0(i64 4, ptr %5) #13
  store float 0.000000e+00, ptr %5, align 4, !tbaa !11
  call void @llvm.lifetime.start.p0(i64 8, ptr %6) #13
  store i64 0, ptr %6, align 8, !tbaa !9
  br label %7

7:                                                ; preds = %24, %2
  %8 = load i64, ptr %6, align 8, !tbaa !9
  %9 = load i64, ptr %4, align 8, !tbaa !9
  %10 = icmp ne i64 %8, %9
  br i1 %10, label %12, label %11

11:                                               ; preds = %7
  call void @llvm.lifetime.end.p0(i64 8, ptr %6) #13
  br label %27

12:                                               ; preds = %7
  %13 = load ptr, ptr %3, align 8, !tbaa !4
  %14 = load i64, ptr %6, align 8, !tbaa !9
  %15 = getelementptr inbounds nuw float, ptr %13, i64 %14
  %16 = load float, ptr %15, align 4, !tbaa !11
  %17 = load ptr, ptr %3, align 8, !tbaa !4
  %18 = load i64, ptr %6, align 8, !tbaa !9
  %19 = getelementptr inbounds nuw float, ptr %17, i64 %18
  %20 = load float, ptr %19, align 4, !tbaa !11
  %21 = fmul fast float %16, %20
  %22 = load float, ptr %5, align 4, !tbaa !11
  %23 = fadd fast float %22, %21
  store float %23, ptr %5, align 4, !tbaa !11
  br label %24

24:                                               ; preds = %12
  %25 = load i64, ptr %6, align 8, !tbaa !9
  %26 = add i64 %25, 1
  store i64 %26, ptr %6, align 8, !tbaa !9
  br label %7, !llvm.loop !26

27:                                               ; preds = %11
  %28 = load float, ptr %5, align 4, !tbaa !11
  call void @llvm.lifetime.end.p0(i64 4, ptr %5) #13
  ret float %28
}