; Function Attrs: mustprogress nofree norecurse nosync nounwind willreturn memory(argmem: read) uwtable
define noundef float @_ZN5faiss15fvec_norm_L2sqrEPKfm(ptr noundef readonly captures(none) %0, i64 noundef %1) local_unnamed_addr #0 {
  %.not9 = icmp eq i64 %1, 0
  br i1 %.not9, label %._crit_edge, label %.lr.ph.preheader

.lr.ph.preheader:                                 ; preds = %2
  %min.iters.check = icmp ult i64 %1, 8
  br i1 %min.iters.check, label %.lr.ph.preheader14, label %vector.ph

vector.ph:                                        ; preds = %.lr.ph.preheader
  %n.vec = and i64 %1, -8
  br label %vector.body

vector.body:                                      ; preds = %vector.body, %vector.ph
  %index = phi i64 [ 0, %vector.ph ], [ %index.next, %vector.body ]
  %vec.phi = phi <4 x float> [ zeroinitializer, %vector.ph ], [ %7, %vector.body ]
  %vec.phi12 = phi <4 x float> [ zeroinitializer, %vector.ph ], [ %8, %vector.body ]
  %3 = getelementptr inbounds nuw float, ptr %0, i64 %index
  %4 = getelementptr inbounds nuw i8, ptr %3, i64 16
  %wide.load = load <4 x float>, ptr %3, align 4, !tbaa !4
  %wide.load13 = load <4 x float>, ptr %4, align 4, !tbaa !4
  %5 = fmul fast <4 x float> %wide.load, %wide.load
  %6 = fmul fast <4 x float> %wide.load13, %wide.load13
  %7 = fadd fast <4 x float> %5, %vec.phi
  %8 = fadd fast <4 x float> %6, %vec.phi12
  %index.next = add nuw i64 %index, 8
  %9 = icmp eq i64 %index.next, %n.vec
  br i1 %9, label %middle.block, label %vector.body, !llvm.loop !32

middle.block:                                     ; preds = %vector.body
  %bin.rdx = fadd fast <4 x float> %8, %7
  %10 = tail call fast float @llvm.vector.reduce.fadd.v4f32(float 0.000000e+00, <4 x float> %bin.rdx)
  %cmp.n = icmp eq i64 %1, %n.vec
  br i1 %cmp.n, label %._crit_edge, label %.lr.ph.preheader14

.lr.ph.preheader14:                               ; preds = %.lr.ph.preheader, %middle.block
  %.011.ph = phi i64 [ 0, %.lr.ph.preheader ], [ %n.vec, %middle.block ]
  %.0810.ph = phi float [ 0.000000e+00, %.lr.ph.preheader ], [ %10, %middle.block ]
  br label %.lr.ph

._crit_edge:                                      ; preds = %.lr.ph, %middle.block, %2
  %.08.lcssa = phi float [ 0.000000e+00, %2 ], [ %10, %middle.block ], [ %14, %.lr.ph ]
  ret float %.08.lcssa

.lr.ph:                                           ; preds = %.lr.ph.preheader14, %.lr.ph
  %.011 = phi i64 [ %15, %.lr.ph ], [ %.011.ph, %.lr.ph.preheader14 ]
  %.0810 = phi float [ %14, %.lr.ph ], [ %.0810.ph, %.lr.ph.preheader14 ]
  %11 = getelementptr inbounds nuw float, ptr %0, i64 %.011
  %12 = load float, ptr %11, align 4, !tbaa !4
  %13 = fmul fast float %12, %12
  %14 = fadd fast float %13, %.0810
  %15 = add nuw i64 %.011, 1
  %.not = icmp eq i64 %15, %1
  br i1 %.not, label %._crit_edge, label %.lr.ph, !llvm.loop !33
}